target datalayout = "e-m:e-p270:32:32-p271:32:32-p272:64:64-i64:64-i128:128-f80:128-n8:16:32:64-S128"
target triple = "x86_64-unknown-linux-gnu"

%"class.icu_75::UnicodeString" = type { %"class.icu_75::Replaceable", %"union.icu_75::UnicodeString::StackBufferOrFields" }
%"class.icu_75::Replaceable" = type { %"class.icu_75::UObject" }
%"class.icu_75::UObject" = type { ptr }
%"union.icu_75::UnicodeString::StackBufferOrFields" = type { %struct.anon.0, [32 x i8] }
%struct.anon.0 = type { i16, i32, i32, ptr }
%struct.anon = type { i16, [27 x i16] }

@_ZTVN6icu_7513UnicodeStringE = external unnamed_addr constant { [13 x ptr] }, align 8
@_ZTVN6icu_7511ReplaceableE = external unnamed_addr constant { [13 x ptr] }, align 8
@_ZTVN6icu_757UObjectE = external unnamed_addr constant { [5 x ptr] }, align 8
@_ZN6icu_759LocaleKeyC1ERKNS_13UnicodeStringES3_PS2_i = unnamed_addr alias void (ptr, ptr, ptr, ptr, i32), ptr @_ZN6icu_759LocaleKeyC2ERKNS_13UnicodeStringES3_PS2_i

; Function Attrs: mustprogress nounwind uwtable
define linkonce_odr void @_ZN6icu_757UObjectC2Ev(ptr noundef nonnull align 8 dereferenceable(8) %this) unnamed_addr #0 comdat align 2 {
entry:
  %this.addr = alloca ptr, align 8
  store ptr %this, ptr %this.addr, align 8
  %this1 = load ptr, ptr %this.addr, align 8
  store ptr getelementptr inbounds ({ [5 x ptr] }, ptr @_ZTVN6icu_757UObjectE, i32 0, i32 0, i32 2), ptr %this1, align 8
  ret void
}

; Function Attrs: mustprogress nounwind uwtable
define linkonce_odr void @_ZN6icu_7511ReplaceableC2Ev(ptr noundef nonnull align 8 dereferenceable(8) %this) unnamed_addr #0 comdat align 2 {
entry:
  %this.addr = alloca ptr, align 8
  store ptr %this, ptr %this.addr, align 8
  %this1 = load ptr, ptr %this.addr, align 8
  call void @_ZN6icu_757UObjectC2Ev(ptr noundef nonnull align 8 dereferenceable(8) %this1) #7
  store ptr getelementptr inbounds ({ [13 x ptr] }, ptr @_ZTVN6icu_7511ReplaceableE, i32 0, i32 0, i32 2), ptr %this1, align 8
  ret void
}

; Function Attrs: mustprogress uwtable
define linkonce_odr void @_ZN6icu_7513UnicodeStringC2Ev(ptr noundef nonnull align 8 dereferenceable(64) %this) unnamed_addr #1 comdat align 2 {
entry:
  %this.addr = alloca ptr, align 8
  store ptr %this, ptr %this.addr, align 8
  %this1 = load ptr, ptr %this.addr, align 8
  call void @_ZN6icu_7511ReplaceableC2Ev(ptr noundef nonnull align 8 dereferenceable(8) %this1)
  store ptr getelementptr inbounds ({ [13 x ptr] }, ptr @_ZTVN6icu_7513UnicodeStringE, i32 0, i32 0, i32 2), ptr %this1, align 8
  %fUnion2 = getelementptr inbounds %"class.icu_75::UnicodeString", ptr %this1, i32 0, i32 1
  %fLengthAndFlags = getelementptr inbounds %struct.anon, ptr %fUnion2, i32 0, i32 0
  store i16 2, ptr %fLengthAndFlags, align 8
  ret void
}

; Function Attrs: mustprogress nounwind uwtable
define internal noundef signext i8 @_ZL9U_FAILURE10UErrorCode(i32 noundef %code) #0 {
entry:
  %code.addr = alloca i32, align 4
  store i32 %code, ptr %code.addr, align 4
  %0 = load i32, ptr %code.addr, align 4
  %cmp = icmp sgt i32 %0, 0
  %conv = zext i1 %cmp to i8
  ret i8 %conv
}

; Function Attrs: mustprogress uwtable
define noundef ptr @_ZN6icu_759LocaleKey27createWithCanonicalFallbackEPKNS_13UnicodeStringES3_iR10UErrorCode(ptr noundef %primaryID, ptr noundef %canonicalFallbackID, i32 noundef %kind, ptr noundef nonnull align 4 dereferenceable(4) %status) #1 align 2 personality ptr @__gxx_personality_v0 {
entry:
  %retval = alloca ptr, align 8
  %primaryID.addr = alloca ptr, align 8
  %canonicalFallbackID.addr = alloca ptr, align 8
  %kind.addr = alloca i32, align 4
  %status.addr = alloca ptr, align 8
  %canonicalPrimaryID = alloca %"class.icu_75::UnicodeString", align 8
  %exn.slot = alloca ptr, align 8
  %ehselector.slot = alloca i32, align 4
  %saved-rvalue = alloca ptr, align 8
  %cleanup.cond = alloca i1, align 1
  store ptr %primaryID, ptr %primaryID.addr, align 8
  store ptr %canonicalFallbackID, ptr %canonicalFallbackID.addr, align 8
  store i32 %kind, ptr %kind.addr, align 4
  store ptr %status, ptr %status.addr, align 8
  %0 = load ptr, ptr %primaryID.addr, align 8
  %cmp = icmp eq ptr %0, null
  br i1 %cmp, label %if.then, label %lor.lhs.false

lor.lhs.false:                                    ; preds = %entry
  %1 = load ptr, ptr %status.addr, align 8
  %2 = load i32, ptr %1, align 4
  %call = call noundef signext i8 @_ZL9U_FAILURE10UErrorCode(i32 noundef %2)
  %tobool = icmp ne i8 %call, 0
  br i1 %tobool, label %if.then, label %if.end

if.then:                                          ; preds = %lor.lhs.false, %entry
  store ptr null, ptr %retval, align 8
  br label %return

if.end:                                           ; preds = %lor.lhs.false
  call void @_ZN6icu_7513UnicodeStringC2Ev(ptr noundef nonnull align 8 dereferenceable(64) %canonicalPrimaryID)
  %3 = load ptr, ptr %primaryID.addr, align 8
  %call1 = invoke noundef nonnull align 8 dereferenceable(64) ptr @_ZN6icu_7513LocaleUtility21canonicalLocaleStringEPKNS_13UnicodeStringERS1_(ptr noundef %3, ptr noundef nonnull align 8 dereferenceable(64) %canonicalPrimaryID)
          to label %invoke.cont unwind label %lpad

invoke.cont:                                      ; preds = %if.end
  %call2 = call noundef ptr @_ZN6icu_757UMemorynwEm(i64 noundef 272) #7
  %new.isnull = icmp eq ptr %call2, null
  store i1 false, ptr %cleanup.cond, align 1
  br i1 %new.isnull, label %new.cont, label %new.notnull

new.notnull:                                      ; preds = %invoke.cont
  store ptr %call2, ptr %saved-rvalue, align 8
  store i1 true, ptr %cleanup.cond, align 1
  %4 = load ptr, ptr %primaryID.addr, align 8
  %5 = load ptr, ptr %canonicalFallbackID.addr, align 8
  %6 = load i32, ptr %kind.addr, align 4
  invoke void @_ZN6icu_759LocaleKeyC1ERKNS_13UnicodeStringES3_PS2_i(ptr noundef nonnull align 8 dereferenceable(272) %call2, ptr noundef nonnull align 8 dereferenceable(64) %4, ptr noundef nonnull align 8 dereferenceable(64) %canonicalPrimaryID, ptr noundef %5, i32 noundef %6)
          to label %invoke.cont4 unwind label %lpad3

invoke.cont4:                                     ; preds = %new.notnull
  br label %new.cont

new.cont:                                         ; preds = %invoke.cont4, %invoke.cont
  %7 = phi ptr [ %call2, %invoke.cont4 ], [ null, %invoke.cont ]
  store ptr %7, ptr %retval, align 8
  call void @_ZN6icu_7513UnicodeStringD1Ev(ptr noundef nonnull align 8 dereferenceable(64) %canonicalPrimaryID) #7
  br label %return

lpad:                                             ; preds = %if.end
  %8 = landingpad { ptr, i32 }
          cleanup
  %9 = extractvalue { ptr, i32 } %8, 0
  store ptr %9, ptr %exn.slot, align 8
  %10 = extractvalue { ptr, i32 } %8, 1
  store i32 %10, ptr %ehselector.slot, align 4
  br label %ehcleanup

lpad3:                                            ; preds = %new.notnull
  %11 = landingpad { ptr, i32 }
          cleanup
  %12 = extractvalue { ptr, i32 } %11, 0
  store ptr %12, ptr %exn.slot, align 8
  %13 = extractvalue { ptr, i32 } %11, 1
  store i32 %13, ptr %ehselector.slot, align 4
  %cleanup.is_active = load i1, ptr %cleanup.cond, align 1
  br i1 %cleanup.is_active, label %cleanup.action, label %cleanup.done

cleanup.action:                                   ; preds = %lpad3
  %14 = load ptr, ptr %saved-rvalue, align 8
  call void @_ZN6icu_757UMemorydlEPv(ptr noundef %14) #7
  br label %cleanup.done

cleanup.done:                                     ; preds = %cleanup.action, %lpad3
  br label %ehcleanup

ehcleanup:                                        ; preds = %cleanup.done, %lpad
  call void @_ZN6icu_7513UnicodeStringD1Ev(ptr noundef nonnull align 8 dereferenceable(64) %canonicalPrimaryID) #7
  br label %eh.resume

return:                                           ; preds = %new.cont, %if.then
  %15 = load ptr, ptr %retval, align 8
  ret ptr %15

eh.resume:                                        ; preds = %ehcleanup
  %exn = load ptr, ptr %exn.slot, align 8
  %sel = load i32, ptr %ehselector.slot, align 4
  %lpad.val = insertvalue { ptr, i32 } poison, ptr %exn, 0
  %lpad.val5 = insertvalue { ptr, i32 } %lpad.val, i32 %sel, 1
  resume { ptr, i32 } %lpad.val5
}

; Function Attrs: mustprogress uwtable
define noundef ptr @_ZN6icu_759LocaleKey27createWithCanonicalFallbackEPKNS_13UnicodeStringES3_R10UErrorCode(ptr noundef %primaryID, ptr noundef %canonicalFallbackID, ptr noundef nonnull align 4 dereferenceable(4) %status) #1 align 2 {
entry:
  %primaryID.addr = alloca ptr, align 8
  %canonicalFallbackID.addr = alloca ptr, align 8
  %status.addr = alloca ptr, align 8
  store ptr %primaryID, ptr %primaryID.addr, align 8
  store ptr %canonicalFallbackID, ptr %canonicalFallbackID.addr, align 8
  store ptr %status, ptr %status.addr, align 8
  %0 = load ptr, ptr %primaryID.addr, align 8
  %1 = load ptr, ptr %canonicalFallbackID.addr, align 8
  %2 = load ptr, ptr %status.addr, align 8
  %call = call noundef ptr @_ZN6icu_759LocaleKey27createWithCanonicalFallbackEPKNS_13UnicodeStringES3_iR10UErrorCode(ptr noundef %0, ptr noundef %1, i32 noundef -1, ptr noundef nonnull align 4 dereferenceable(4) %2)
  ret ptr %call
}