; Function Attrs: mustprogress uwtable
define noundef ptr @_ZN6icu_759LocaleKey27createWithCanonicalFallbackEPKNS_13UnicodeStringES3_R10UErrorCode(ptr noundef %primaryID, ptr noundef %canonicalFallbackID, ptr nocapture noundef nonnull readonly align 4 dereferenceable(4) %status) local_unnamed_addr #1 align 2 personality ptr @__gxx_personality_v0 {
entry:
  %canonicalPrimaryID.i = alloca %"class.icu_75::UnicodeString", align 8
  call void @llvm.lifetime.start.p0(i64 64, ptr nonnull %canonicalPrimaryID.i)
  %cmp.i = icmp ne ptr %primaryID, null
  %0 = load i32, ptr %status, align 4
  %cmp.i.i = icmp slt i32 %0, 1
  %or.cond.i = select i1 %cmp.i, i1 %cmp.i.i, i1 false
  br i1 %or.cond.i, label %if.end.i, label %_ZN6icu_759LocaleKey27createWithCanonicalFallbackEPKNS_13UnicodeStringES3_iR10UErrorCode.exit

if.end.i:                                         ; preds = %entry
  store ptr getelementptr inbounds ({ [13 x ptr] }, ptr @_ZTVN6icu_7513UnicodeStringE, i64 0, i32 0, i64 2), ptr %canonicalPrimaryID.i, align 8
  %fUnion2.i.i = getelementptr inbounds i8, ptr %canonicalPrimaryID.i, i64 8
  store i16 2, ptr %fUnion2.i.i, align 8
  %call1.i = invoke noundef nonnull align 8 dereferenceable(64) ptr @_ZN6icu_7513LocaleUtility21canonicalLocaleStringEPKNS_13UnicodeStringERS1_(ptr noundef nonnull %primaryID, ptr noundef nonnull align 8 dereferenceable(64) %canonicalPrimaryID.i)
          to label %invoke.cont.i unwind label %lpad.i

invoke.cont.i:                                    ; preds = %if.end.i
  %call2.i = call noundef ptr @_ZN6icu_757UMemorynwEm(i64 noundef 272) #11
  %new.isnull.i = icmp eq ptr %call2.i, null
  br i1 %new.isnull.i, label %new.cont.i, label %new.notnull.i

new.notnull.i:                                    ; preds = %invoke.cont.i
  invoke void @_ZN6icu_759LocaleKeyC1ERKNS_13UnicodeStringES3_PS2_i(ptr noundef nonnull align 8 dereferenceable(272) %call2.i, ptr noundef nonnull align 8 dereferenceable(64) %primaryID, ptr noundef nonnull align 8 dereferenceable(64) %canonicalPrimaryID.i, ptr noundef %canonicalFallbackID, i32 noundef -1)
          to label %new.cont.i unwind label %lpad3.i

new.cont.i:                                       ; preds = %new.notnull.i, %invoke.cont.i
  call void @_ZN6icu_7513UnicodeStringD1Ev(ptr noundef nonnull align 8 dereferenceable(64) %canonicalPrimaryID.i) #11
  br label %_ZN6icu_759LocaleKey27createWithCanonicalFallbackEPKNS_13UnicodeStringES3_iR10UErrorCode.exit

lpad.i:                                           ; preds = %if.end.i
  %1 = landingpad { ptr, i32 }
          cleanup
  br label %ehcleanup.i

lpad3.i:                                          ; preds = %new.notnull.i
  %2 = landingpad { ptr, i32 }
          cleanup
  call void @_ZN6icu_757UMemorydlEPv(ptr noundef nonnull %call2.i) #11
  br label %ehcleanup.i

ehcleanup.i:                                      ; preds = %lpad3.i, %lpad.i
  %.pn.i = phi { ptr, i32 } [ %2, %lpad3.i ], [ %1, %lpad.i ]
  call void @_ZN6icu_7513UnicodeStringD1Ev(ptr noundef nonnull align 8 dereferenceable(64) %canonicalPrimaryID.i) #11
  resume { ptr, i32 } %.pn.i

_ZN6icu_759LocaleKey27createWithCanonicalFallbackEPKNS_13UnicodeStringES3_iR10UErrorCode.exit: ; preds = %entry, %new.cont.i
  %retval.0.i = phi ptr [ %call2.i, %new.cont.i ], [ null, %entry ]
  call void @llvm.lifetime.end.p0(i64 64, ptr nonnull %canonicalPrimaryID.i)
  ret ptr %retval.0.i
}